target datalayout = "e-m:e-p270:32:32-p271:32:32-p272:64:64-i64:64-i128:128-f80:128-n8:16:32:64-S128"
target triple = "x86_64-pc-linux-gnu"

%struct.commit = type { %struct.object, i64, ptr, ptr, i32 }
%struct.object = type { i32, %struct.object_id }
%struct.object_id = type { [32 x i8], i32 }
%struct.commit_list = type { ptr, ptr }

; Function Attrs: nounwind uwtable
define internal i32 @line_log_rewrite_one(ptr noundef %0, ptr noundef %1) #0 {
  %3 = alloca i32, align 4
  %4 = alloca ptr, align 8
  %5 = alloca ptr, align 8
  %6 = alloca ptr, align 8
  %7 = alloca i32, align 4
  store ptr %0, ptr %4, align 8, !tbaa !26
  store ptr %1, ptr %5, align 8, !tbaa !160
  br label %8

8:                                                ; preds = %54, %2
  call void @llvm.lifetime.start.p0(i64 8, ptr %6) #9
  %9 = load ptr, ptr %5, align 8, !tbaa !160
  %10 = load ptr, ptr %9, align 8, !tbaa !32
  store ptr %10, ptr %6, align 8, !tbaa !32
  %11 = load ptr, ptr %6, align 8, !tbaa !32
  %12 = getelementptr inbounds nuw %struct.commit, ptr %11, i32 0, i32 2
  %13 = load ptr, ptr %12, align 8, !tbaa !143
  %14 = icmp ne ptr %13, null
  br i1 %14, label %15, label %23

15:                                               ; preds = %8
  %16 = load ptr, ptr %6, align 8, !tbaa !32
  %17 = getelementptr inbounds nuw %struct.commit, ptr %16, i32 0, i32 2
  %18 = load ptr, ptr %17, align 8, !tbaa !143
  %19 = getelementptr inbounds nuw %struct.commit_list, ptr %18, i32 0, i32 1
  %20 = load ptr, ptr %19, align 8, !tbaa !150
  %21 = icmp ne ptr %20, null
  br i1 %21, label %22, label %23

22:                                               ; preds = %15
  store i32 0, ptr %3, align 4
  store i32 1, ptr %7, align 4
  br label %52

23:                                               ; preds = %15, %8
  %24 = load ptr, ptr %6, align 8, !tbaa !32
  %25 = getelementptr inbounds nuw %struct.commit, ptr %24, i32 0, i32 0
  %26 = load i32, ptr %25, align 8
  %27 = lshr i32 %26, 4
  %28 = and i32 %27, 2
  %29 = icmp ne i32 %28, 0
  br i1 %29, label %30, label %31

30:                                               ; preds = %23
  store i32 0, ptr %3, align 4
  store i32 1, ptr %7, align 4
  br label %52

31:                                               ; preds = %23
  %32 = load ptr, ptr %6, align 8, !tbaa !32
  %33 = getelementptr inbounds nuw %struct.commit, ptr %32, i32 0, i32 0
  %34 = load i32, ptr %33, align 8
  %35 = lshr i32 %34, 4
  %36 = and i32 %35, 4
  %37 = icmp ne i32 %36, 0
  br i1 %37, label %39, label %38

38:                                               ; preds = %31
  store i32 0, ptr %3, align 4
  store i32 1, ptr %7, align 4
  br label %52

39:                                               ; preds = %31
  %40 = load ptr, ptr %6, align 8, !tbaa !32
  %41 = getelementptr inbounds nuw %struct.commit, ptr %40, i32 0, i32 2
  %42 = load ptr, ptr %41, align 8, !tbaa !143
  %43 = icmp ne ptr %42, null
  br i1 %43, label %45, label %44

44:                                               ; preds = %39
  store i32 1, ptr %3, align 4
  store i32 1, ptr %7, align 4
  br label %52

45:                                               ; preds = %39
  %46 = load ptr, ptr %6, align 8, !tbaa !32
  %47 = getelementptr inbounds nuw %struct.commit, ptr %46, i32 0, i32 2
  %48 = load ptr, ptr %47, align 8, !tbaa !143
  %49 = getelementptr inbounds nuw %struct.commit_list, ptr %48, i32 0, i32 0
  %50 = load ptr, ptr %49, align 8, !tbaa !148
  %51 = load ptr, ptr %5, align 8, !tbaa !160
  store ptr %50, ptr %51, align 8, !tbaa !32
  store i32 0, ptr %7, align 4
  br label %52

52:                                               ; preds = %45, %44, %38, %30, %22
  call void @llvm.lifetime.end.p0(i64 8, ptr %6) #9
  %53 = load i32, ptr %7, align 4
  switch i32 %53, label %57 [
    i32 0, label %54
    i32 1, label %55
  ]

54:                                               ; preds = %52
  br label %8

55:                                               ; preds = %52
  %56 = load i32, ptr %3, align 4
  ret i32 %56

57:                                               ; preds = %52
  unreachable
}