; Function Attrs: nofree norecurse nosync nounwind memory(read, argmem: readwrite, inaccessiblemem: none) uwtable
define internal range(i32 0, 2) i32 @line_log_rewrite_one(ptr readnone captures(none) %0, ptr noundef captures(none) %1) #7 {
  %.promoted = load ptr, ptr %1, align 8, !tbaa !159
  %3 = getelementptr inbounds nuw i8, ptr %.promoted, i64 48
  %4 = load ptr, ptr %3, align 8, !tbaa !149
  %.not26 = icmp eq ptr %4, null
  br i1 %.not26, label %._crit_edge, label %.lr.ph

.lr.ph:                                           ; preds = %2, %13
  %5 = phi ptr [ %16, %13 ], [ %4, %2 ]
  %6 = phi ptr [ %14, %13 ], [ %.promoted, %2 ]
  %7 = getelementptr inbounds nuw i8, ptr %5, i64 8
  %8 = load ptr, ptr %7, align 8, !tbaa !158
  %.not12 = icmp eq ptr %8, null
  br i1 %.not12, label %.thread, label %.loopexit

._crit_edge:                                      ; preds = %13, %2
  %.lcssa = phi ptr [ %.promoted, %2 ], [ %14, %13 ]
  %9 = load i32, ptr %.lcssa, align 8
  %10 = and i32 %9, 96
  %or.cond.not = icmp eq i32 %10, 64
  %spec.select = zext i1 %or.cond.not to i32
  br label %.loopexit

.thread:                                          ; preds = %.lr.ph
  %11 = load i32, ptr %6, align 8
  %12 = and i32 %11, 96
  %or.cond18.not = icmp eq i32 %12, 64
  br i1 %or.cond18.not, label %13, label %.loopexit

13:                                               ; preds = %.thread
  %14 = load ptr, ptr %5, align 8, !tbaa !155
  store ptr %14, ptr %1, align 8, !tbaa !159
  %15 = getelementptr inbounds nuw i8, ptr %14, i64 48
  %16 = load ptr, ptr %15, align 8, !tbaa !149
  %.not = icmp eq ptr %16, null
  br i1 %.not, label %._crit_edge, label %.lr.ph

.loopexit:                                        ; preds = %.lr.ph, %.thread, %._crit_edge
  %.1.ph = phi i32 [ %spec.select, %._crit_edge ], [ 0, %.thread ], [ 0, %.lr.ph ]
  ret i32 %.1.ph
}